target datalayout = "e-m:e-p270:32:32-p271:32:32-p272:64:64-i64:64-i128:128-f80:128-n8:16:32:64-S128"
target triple = "x86_64-pc-linux-gnu"

%"class.absl::lts_20240722::Status" = type { i64 }
%"class.std::__cxx11::basic_string" = type { %"struct.std::__cxx11::basic_string<char>::_Alloc_hider", i64, %union.anon.2 }
%"struct.std::__cxx11::basic_string<char>::_Alloc_hider" = type { ptr }
%union.anon.2 = type { i64, [8 x i8] }
%"union.absl::lts_20240722::internal_any_invocable::TypeErasedState" = type { %struct.anon }
%struct.anon = type { ptr, i64 }
%"class.grpc_core::RefCounted" = type { %"class.grpc_core::PolymorphicRefCount", %"class.grpc_core::RefCount" }
%"class.grpc_core::PolymorphicRefCount" = type { ptr }
%"class.grpc_core::RefCount" = type { %"struct.std::atomic.89" }
%"struct.std::atomic.89" = type { %"struct.std::__atomic_base.90" }
%"struct.std::__atomic_base.90" = type { i64 }
%"class.grpc_core::Handshaker" = type { %"class.grpc_core::RefCounted" }
%"class.absl::lts_20240722::AnyInvocable.92" = type { %"class.absl::lts_20240722::internal_any_invocable::Impl.93" }
%"class.absl::lts_20240722::internal_any_invocable::Impl.93" = type { %"class.absl::lts_20240722::internal_any_invocable::CoreImpl.94" }
%"class.absl::lts_20240722::internal_any_invocable::CoreImpl.94" = type { %"union.absl::lts_20240722::internal_any_invocable::TypeErasedState", ptr, ptr }
%"class.grpc_core::(anonymous namespace)::SecurityHandshaker" = type { %"class.grpc_core::Handshaker", ptr, %"class.grpc_core::RefCountedPtr.91", %"class.absl::lts_20240722::Mutex", i8, ptr, [8 x i8], %"class.absl::lts_20240722::AnyInvocable.92", i64, ptr, %"class.grpc_core::SliceBuffer", %"class.grpc_core::RefCountedPtr.95", ptr, i64, %"class.std::__cxx11::basic_string", ptr, [8 x i8] }
%"class.grpc_core::RefCountedPtr.91" = type { ptr }
%"class.absl::lts_20240722::Mutex" = type { %"struct.std::atomic.89" }
%"class.grpc_core::SliceBuffer" = type { %struct.grpc_slice_buffer }
%struct.grpc_slice_buffer = type { ptr, ptr, i64, i64, i64, [6 x %struct.grpc_slice] }
%struct.grpc_slice = type { ptr, %"union.grpc_slice::grpc_slice_data" }
%"union.grpc_slice::grpc_slice_data" = type { %"struct.grpc_slice::grpc_slice_data::grpc_slice_refcounted", [8 x i8] }
%"struct.grpc_slice::grpc_slice_data::grpc_slice_refcounted" = type { i64, ptr }
%"class.grpc_core::RefCountedPtr.95" = type { ptr }

; Function Attrs: mustprogress nounwind uwtable
define linkonce_odr noundef i64 @_ZN4absl12lts_202407226Status16CodeToInlinedRepENS0_10StatusCodeE(i32 noundef %0) #7 comdat align 2 {
  %2 = alloca i32, align 4
  store i32 %0, ptr %2, align 4, !tbaa !208
  %3 = load i32, ptr %2, align 4, !tbaa !208
  %4 = sext i32 %3 to i64
  %5 = shl i64 %4, 2
  %6 = add i64 %5, 1
  ret i64 %6
}

; Function Attrs: mustprogress nounwind uwtable
define linkonce_odr void @_ZN4absl12lts_2024072222internal_any_invocable8CoreImplILb0EvJNS0_6StatusEEEC2EOS4_(ptr noundef nonnull align 16 dereferenceable(32) %0, ptr noundef nonnull align 16 dereferenceable(32) %1) unnamed_addr #7 comdat align 2 {
  %3 = alloca ptr, align 8
  %4 = alloca ptr, align 8
  store ptr %0, ptr %3, align 8, !tbaa !220
  store ptr %1, ptr %4, align 8, !tbaa !220
  %5 = load ptr, ptr %3, align 8
  %6 = load ptr, ptr %4, align 8, !tbaa !220
  %7 = getelementptr inbounds nuw %"class.absl::lts_20240722::internal_any_invocable::CoreImpl.94", ptr %6, i32 0, i32 1
  %8 = load ptr, ptr %7, align 16, !tbaa !222
  %9 = load ptr, ptr %4, align 8, !tbaa !220
  %10 = getelementptr inbounds nuw %"class.absl::lts_20240722::internal_any_invocable::CoreImpl.94", ptr %9, i32 0, i32 0
  %11 = getelementptr inbounds nuw %"class.absl::lts_20240722::internal_any_invocable::CoreImpl.94", ptr %5, i32 0, i32 0
  call void %8(i1 noundef zeroext false, ptr noundef %10, ptr noundef %11) #3
  %12 = load ptr, ptr %4, align 8, !tbaa !220
  %13 = getelementptr inbounds nuw %"class.absl::lts_20240722::internal_any_invocable::CoreImpl.94", ptr %12, i32 0, i32 1
  %14 = load ptr, ptr %13, align 16, !tbaa !222
  %15 = getelementptr inbounds nuw %"class.absl::lts_20240722::internal_any_invocable::CoreImpl.94", ptr %5, i32 0, i32 1
  store ptr %14, ptr %15, align 16, !tbaa !222
  %16 = load ptr, ptr %4, align 8, !tbaa !220
  %17 = getelementptr inbounds nuw %"class.absl::lts_20240722::internal_any_invocable::CoreImpl.94", ptr %16, i32 0, i32 2
  %18 = load ptr, ptr %17, align 8, !tbaa !226
  %19 = getelementptr inbounds nuw %"class.absl::lts_20240722::internal_any_invocable::CoreImpl.94", ptr %5, i32 0, i32 2
  store ptr %18, ptr %19, align 8, !tbaa !226
  %20 = load ptr, ptr %4, align 8, !tbaa !220
  %21 = getelementptr inbounds nuw %"class.absl::lts_20240722::internal_any_invocable::CoreImpl.94", ptr %20, i32 0, i32 1
  store ptr @_ZN4absl12lts_2024072222internal_any_invocable12EmptyManagerENS1_14FunctionToCallEPNS1_15TypeErasedStateES4_, ptr %21, align 16, !tbaa !222
  %22 = load ptr, ptr %4, align 8, !tbaa !220
  %23 = getelementptr inbounds nuw %"class.absl::lts_20240722::internal_any_invocable::CoreImpl.94", ptr %22, i32 0, i32 2
  store ptr null, ptr %23, align 8, !tbaa !226
  ret void
}

; Function Attrs: mustprogress nounwind uwtable
define linkonce_odr noundef i64 @_ZN4absl12lts_202407226Status12MovedFromRepEv() #7 comdat align 2 {
  %1 = call noundef i64 @_ZN4absl12lts_202407226Status16CodeToInlinedRepENS0_10StatusCodeE(i32 noundef 13)
  %2 = or i64 %1, 2
  ret i64 %2
}

; Function Attrs: mustprogress nounwind uwtable
define linkonce_odr void @_ZN4absl12lts_202407226StatusC2Em(ptr noundef nonnull align 8 dereferenceable(8) %0, i64 noundef %1) unnamed_addr #7 comdat align 2 {
  %3 = alloca ptr, align 8
  %4 = alloca i64, align 8
  store ptr %0, ptr %3, align 8, !tbaa !14
  store i64 %1, ptr %4, align 8, !tbaa !24
  %5 = load ptr, ptr %3, align 8
  %6 = getelementptr inbounds nuw %"class.absl::lts_20240722::Status", ptr %5, i32 0, i32 0
  %7 = load i64, ptr %4, align 8, !tbaa !24
  store i64 %7, ptr %6, align 8, !tbaa !20
  ret void
}

; Function Attrs: inlinehint mustprogress nounwind uwtable
define linkonce_odr void @_ZN4absl12lts_2024072222internal_any_invocable4ImplIFvNS0_6StatusEEEC2EOS5_(ptr noundef nonnull align 16 dereferenceable(32) %0, ptr noundef nonnull align 16 dereferenceable(32) %1) unnamed_addr #8 comdat align 2 {
  %3 = alloca ptr, align 8
  %4 = alloca ptr, align 8
  store ptr %0, ptr %3, align 8, !tbaa !224
  store ptr %1, ptr %4, align 8, !tbaa !224
  %5 = load ptr, ptr %3, align 8
  %6 = load ptr, ptr %4, align 8, !tbaa !224
  call void @_ZN4absl12lts_2024072222internal_any_invocable8CoreImplILb0EvJNS0_6StatusEEEC2EOS4_(ptr noundef nonnull align 16 dereferenceable(32) %5, ptr noundef nonnull align 16 dereferenceable(32) %6) #3
  ret void
}

; Function Attrs: mustprogress nounwind uwtable
define linkonce_odr void @_ZN4absl12lts_2024072222internal_any_invocable8CoreImplILb0EvJNS0_6StatusEEED2Ev(ptr noundef nonnull align 16 dereferenceable(32) %0) unnamed_addr #7 comdat align 2 {
  %2 = alloca ptr, align 8
  store ptr %0, ptr %2, align 8, !tbaa !220
  %3 = load ptr, ptr %2, align 8
  %4 = getelementptr inbounds nuw %"class.absl::lts_20240722::internal_any_invocable::CoreImpl.94", ptr %3, i32 0, i32 1
  %5 = load ptr, ptr %4, align 16, !tbaa !222
  %6 = getelementptr inbounds nuw %"class.absl::lts_20240722::internal_any_invocable::CoreImpl.94", ptr %3, i32 0, i32 0
  %7 = getelementptr inbounds nuw %"class.absl::lts_20240722::internal_any_invocable::CoreImpl.94", ptr %3, i32 0, i32 0
  call void %5(i1 noundef zeroext true, ptr noundef %6, ptr noundef %7) #3
  ret void
}

; Function Attrs: inlinehint mustprogress nounwind uwtable
define linkonce_odr void @_ZN4absl12lts_202407226StatusC2EOS1_(ptr noundef nonnull align 8 dereferenceable(8) %0, ptr noundef nonnull align 8 dereferenceable(8) %1) unnamed_addr #8 comdat align 2 personality ptr @__gxx_personality_v0 {
  %3 = alloca ptr, align 8
  %4 = alloca ptr, align 8
  store ptr %0, ptr %3, align 8, !tbaa !14
  store ptr %1, ptr %4, align 8, !tbaa !14
  %5 = load ptr, ptr %3, align 8
  %6 = load ptr, ptr %4, align 8, !tbaa !14
  %7 = getelementptr inbounds nuw %"class.absl::lts_20240722::Status", ptr %6, i32 0, i32 0
  %8 = load i64, ptr %7, align 8, !tbaa !20
  invoke void @_ZN4absl12lts_202407226StatusC2Em(ptr noundef nonnull align 8 dereferenceable(8) %5, i64 noundef %8)
          to label %9 unwind label %14

9:                                                ; preds = %2
  %10 = invoke noundef i64 @_ZN4absl12lts_202407226Status12MovedFromRepEv()
          to label %11 unwind label %14

11:                                               ; preds = %9
  %12 = load ptr, ptr %4, align 8, !tbaa !14
  %13 = getelementptr inbounds nuw %"class.absl::lts_20240722::Status", ptr %12, i32 0, i32 0
  store i64 %10, ptr %13, align 8, !tbaa !20
  ret void

14:                                               ; preds = %9, %2
  %15 = landingpad { ptr, i32 }
          catch ptr null
  %16 = extractvalue { ptr, i32 } %15, 0
  call void @__clang_call_terminate(ptr %16) #27
  unreachable
}

; Function Attrs: mustprogress nounwind uwtable
define linkonce_odr void @_ZN4absl12lts_2024072212AnyInvocableIFvNS0_6StatusEEEC2EOS4_(ptr noundef nonnull align 16 dereferenceable(32) %0, ptr noundef nonnull align 16 dereferenceable(32) %1) unnamed_addr #7 comdat align 2 {
  %3 = alloca ptr, align 8
  %4 = alloca ptr, align 8
  store ptr %0, ptr %3, align 8, !tbaa !212
  store ptr %1, ptr %4, align 8, !tbaa !212
  %5 = load ptr, ptr %3, align 8
  %6 = load ptr, ptr %4, align 8, !tbaa !212
  call void @_ZN4absl12lts_2024072222internal_any_invocable4ImplIFvNS0_6StatusEEEC2EOS5_(ptr noundef nonnull align 16 dereferenceable(32) %5, ptr noundef nonnull align 16 dereferenceable(32) %6) #3
  ret void
}

; Function Attrs: mustprogress uwtable
define internal void @_ZN9grpc_core12_GLOBAL__N_118SecurityHandshaker6FinishEN4absl12lts_202407226StatusE(ptr noundef nonnull align 16 dereferenceable(408) %0, ptr noundef %1) #4 align 2 personality ptr @__gxx_personality_v0 {
  %3 = alloca ptr, align 8
  %4 = alloca ptr, align 8
  %5 = alloca %"class.absl::lts_20240722::AnyInvocable.92", align 16
  %6 = alloca %"class.absl::lts_20240722::Status", align 8
  %7 = alloca ptr, align 8
  %8 = alloca i32, align 4
  store ptr %0, ptr %3, align 8, !tbaa !236
  store ptr %1, ptr %4, align 8, !tbaa !14
  %9 = load ptr, ptr %3, align 8
  %10 = getelementptr inbounds nuw %"class.grpc_core::(anonymous namespace)::SecurityHandshaker", ptr %9, i32 0, i32 5
  %11 = load ptr, ptr %10, align 16, !tbaa !257
  %12 = getelementptr inbounds nuw %"class.grpc_core::(anonymous namespace)::SecurityHandshaker", ptr %9, i32 0, i32 7
  call void @_ZN4absl12lts_2024072212AnyInvocableIFvNS0_6StatusEEEC2EOS4_(ptr noundef nonnull align 16 dereferenceable(32) %5, ptr noundef nonnull align 16 dereferenceable(32) %12) #3
  call void @_ZN4absl12lts_202407226StatusC2EOS1_(ptr noundef nonnull align 8 dereferenceable(8) %6, ptr noundef nonnull align 8 dereferenceable(8) %1) #3
  invoke void @_ZN9grpc_core10Handshaker21InvokeOnHandshakeDoneEPNS_14HandshakerArgsEN4absl12lts_2024072212AnyInvocableIFvNS4_6StatusEEEES6_(ptr noundef %11, ptr noundef %5, ptr noundef %6)
          to label %13 unwind label %14

13:                                               ; preds = %2
  call void @_ZN4absl12lts_202407226StatusD2Ev(ptr noundef nonnull align 8 dereferenceable(8) %6) #3
  call void @_ZN4absl12lts_2024072222internal_any_invocable8CoreImplILb0EvJNS0_6StatusEEED2Ev(ptr noundef nonnull align 16 dereferenceable(32) %5) #3
  ret void

14:                                               ; preds = %2
  %15 = landingpad { ptr, i32 }
          cleanup
  %16 = extractvalue { ptr, i32 } %15, 0
  store ptr %16, ptr %7, align 8
  %17 = extractvalue { ptr, i32 } %15, 1
  store i32 %17, ptr %8, align 4
  call void @_ZN4absl12lts_202407226StatusD2Ev(ptr noundef nonnull align 8 dereferenceable(8) %6) #3
  call void @_ZN4absl12lts_2024072222internal_any_invocable8CoreImplILb0EvJNS0_6StatusEEED2Ev(ptr noundef nonnull align 16 dereferenceable(32) %5) #3
  br label %18

18:                                               ; preds = %14
  %19 = load ptr, ptr %7, align 8
  %20 = load i32, ptr %8, align 4
  %21 = insertvalue { ptr, i32 } poison, ptr %19, 0
  %22 = insertvalue { ptr, i32 } %21, i32 %20, 1
  resume { ptr, i32 } %22
}