; Function Attrs: mustprogress uwtable
define internal fastcc void @_ZN9grpc_core12_GLOBAL__N_118SecurityHandshaker6FinishEN4absl12lts_202407226StatusE(ptr noundef nonnull align 16 dereferenceable(408) %0, ptr noundef nonnull captures(none) %1) unnamed_addr #3 align 2 personality ptr @__gxx_personality_v0 {
  %3 = alloca %"class.absl::lts_20240722::AnyInvocable.92", align 16
  %4 = alloca %"class.absl::lts_20240722::Status", align 8
  %5 = getelementptr inbounds nuw i8, ptr %0, i64 48
  %6 = load ptr, ptr %5, align 16, !tbaa !76
  %7 = getelementptr inbounds nuw i8, ptr %0, i64 64
  %8 = getelementptr inbounds nuw i8, ptr %0, i64 80
  %9 = load ptr, ptr %8, align 16, !tbaa !77
  call void %9(i1 noundef zeroext false, ptr noundef nonnull align 16 dereferenceable(32) %7, ptr noundef nonnull align 16 dereferenceable(32) %3) #30
  %10 = load ptr, ptr %8, align 16, !tbaa !77
  %11 = getelementptr inbounds nuw i8, ptr %3, i64 16
  store ptr %10, ptr %11, align 16, !tbaa !77
  %12 = getelementptr inbounds nuw i8, ptr %0, i64 88
  %13 = load ptr, ptr %12, align 8, !tbaa !78
  %14 = getelementptr inbounds nuw i8, ptr %3, i64 24
  store ptr %13, ptr %14, align 8, !tbaa !78
  store ptr @_ZN4absl12lts_2024072222internal_any_invocable12EmptyManagerENS1_14FunctionToCallEPNS1_15TypeErasedStateES4_, ptr %8, align 16, !tbaa !77
  store ptr null, ptr %12, align 8, !tbaa !78
  %15 = load i64, ptr %1, align 8, !tbaa !3
  store i64 %15, ptr %4, align 8, !tbaa !3
  store i64 55, ptr %1, align 8, !tbaa !3
  invoke void @_ZN9grpc_core10Handshaker21InvokeOnHandshakeDoneEPNS_14HandshakerArgsEN4absl12lts_2024072212AnyInvocableIFvNS4_6StatusEEEES6_(ptr noundef %6, ptr noundef nonnull %3, ptr noundef nonnull %4)
          to label %16 unwind label %25

16:                                               ; preds = %2
  %17 = load i64, ptr %4, align 8, !tbaa !3
  %18 = and i64 %17, 1
  %.not.i.i = icmp eq i64 %18, 0
  br i1 %.not.i.i, label %19, label %_ZN4absl12lts_202407226StatusD2Ev.exit

19:                                               ; preds = %16
  %20 = inttoptr i64 %17 to ptr
  invoke void @_ZNK4absl12lts_2024072215status_internal9StatusRep5UnrefEv(ptr noundef nonnull align 8 dereferenceable(48) %20)
          to label %_ZN4absl12lts_202407226StatusD2Ev.exit unwind label %21

21:                                               ; preds = %19
  %22 = landingpad { ptr, i32 }
          catch ptr null
  %23 = extractvalue { ptr, i32 } %22, 0
  call void @__clang_call_terminate(ptr %23) #33
  unreachable

_ZN4absl12lts_202407226StatusD2Ev.exit:           ; preds = %16, %19
  %24 = load ptr, ptr %11, align 16, !tbaa !77
  call void %24(i1 noundef zeroext true, ptr noundef nonnull align 16 dereferenceable(32) %3, ptr noundef nonnull align 16 dereferenceable(32) %3) #30
  ret void

25:                                               ; preds = %2
  %26 = landingpad { ptr, i32 }
          cleanup
  call void @_ZN4absl12lts_202407226StatusD2Ev(ptr noundef nonnull align 8 dereferenceable(8) %4) #30
  %27 = load ptr, ptr %11, align 16, !tbaa !77
  call void %27(i1 noundef zeroext true, ptr noundef nonnull align 16 dereferenceable(32) %3, ptr noundef nonnull align 16 dereferenceable(32) %3) #30
  resume { ptr, i32 } %26
}